target datalayout = "e-m:e-p270:32:32-p271:32:32-p272:64:64-i64:64-i128:128-f80:128-n8:16:32:64-S128"
target triple = "x86_64-pc-linux-gnu"

%struct.ARKodeMRIStepMemRec = type { ptr, ptr, i32, i32, i32, i32, i32, ptr, ptr, i32, i32, i32, ptr, i32, i32, i32, i32, i32, ptr, ptr, ptr, ptr, ptr, ptr, ptr, i32, ptr, i32, ptr, double, double, double, double, i32, double, double, double, double, double, double, i32, i64, i32, i32, i32, ptr, ptr, ptr, ptr, ptr, ptr, ptr, ptr, ptr, double, double, double, i64, i64, i64, i64, i64, i64, i32, i32, i32, double, double, ptr, i32, ptr, ptr }

@.str = private unnamed_addr constant [126 x i8] c"generated/home/dtcxzyw/WorkSpace/Projects/compilers/llvm-opt-benchmark/bench/sundials/sundials/src/arkode/arkode_mristep_io.c\00", align 1
@__func__.MRIStepWriteCoupling = private unnamed_addr constant [21 x i8] c"MRIStepWriteCoupling\00", align 1
@.str.65 = private unnamed_addr constant [27 x i8] c"Coupling structure is NULL\00", align 1
@.str.66 = private unnamed_addr constant [30 x i8] c"\0AMRIStep coupling structure:\0A\00", align 1

; Function Attrs: nounwind uwtable
define i32 @MRIStepWriteCoupling(ptr noundef %0, ptr noundef %1) #0 {
  %3 = alloca i32, align 4
  %4 = alloca ptr, align 8
  %5 = alloca ptr, align 8
  %6 = alloca ptr, align 8
  %7 = alloca ptr, align 8
  %8 = alloca i32, align 4
  %9 = alloca i32, align 4
  store ptr %0, ptr %4, align 8, !tbaa !3
  store ptr %1, ptr %5, align 8, !tbaa !91
  call void @llvm.lifetime.start.p0(i64 8, ptr %6) #4
  call void @llvm.lifetime.start.p0(i64 8, ptr %7) #4
  call void @llvm.lifetime.start.p0(i64 4, ptr %8) #4
  %10 = load ptr, ptr %4, align 8, !tbaa !3
  %11 = call i32 @mriStep_AccessARKODEStepMem(ptr noundef %10, ptr noundef @__func__.MRIStepWriteCoupling, ptr noundef %6, ptr noundef %7)
  store i32 %11, ptr %8, align 4, !tbaa !9
  %12 = load i32, ptr %8, align 4, !tbaa !9
  %13 = icmp ne i32 %12, 0
  br i1 %13, label %14, label %16

14:                                               ; preds = %2
  %15 = load i32, ptr %8, align 4, !tbaa !9
  store i32 %15, ptr %3, align 4
  store i32 1, ptr %9, align 4
  br label %30

16:                                               ; preds = %2
  %17 = load ptr, ptr %7, align 8, !tbaa !13
  %18 = getelementptr inbounds nuw %struct.ARKodeMRIStepMemRec, ptr %17, i32 0, i32 12
  %19 = load ptr, ptr %18, align 8, !tbaa !27
  %20 = icmp eq ptr %19, null
  br i1 %20, label %21, label %23

21:                                               ; preds = %16
  %22 = load ptr, ptr %6, align 8, !tbaa !11
  call void (ptr, i32, i32, ptr, ptr, ptr, ...) @arkProcessError(ptr noundef %22, i32 noundef -21, i32 noundef 1322, ptr noundef @__func__.MRIStepWriteCoupling, ptr noundef @.str, ptr noundef @.str.65)
  store i32 -21, ptr %3, align 4
  store i32 1, ptr %9, align 4
  br label %30

23:                                               ; preds = %16
  %24 = load ptr, ptr %5, align 8, !tbaa !91
  %25 = call i32 (ptr, ptr, ...) @fprintf(ptr noundef %24, ptr noundef @.str.66) #4
  %26 = load ptr, ptr %7, align 8, !tbaa !13
  %27 = getelementptr inbounds nuw %struct.ARKodeMRIStepMemRec, ptr %26, i32 0, i32 12
  %28 = load ptr, ptr %27, align 8, !tbaa !27
  %29 = load ptr, ptr %5, align 8, !tbaa !91
  call void @MRIStepCoupling_Write(ptr noundef %28, ptr noundef %29)
  store i32 0, ptr %3, align 4
  store i32 1, ptr %9, align 4
  br label %30

30:                                               ; preds = %23, %21, %14
  call void @llvm.lifetime.end.p0(i64 4, ptr %8) #4
  call void @llvm.lifetime.end.p0(i64 8, ptr %7) #4
  call void @llvm.lifetime.end.p0(i64 8, ptr %6) #4
  %31 = load i32, ptr %3, align 4
  ret i32 %31
}