; Function Attrs: nounwind uwtable
define i32 @MRIStepWriteCoupling(ptr noundef %0, ptr noundef %1) local_unnamed_addr #0 {
  %3 = alloca ptr, align 8
  %4 = alloca ptr, align 8
  call void @llvm.lifetime.start.p0(i64 8, ptr nonnull %3) #5
  call void @llvm.lifetime.start.p0(i64 8, ptr nonnull %4) #5
  %5 = call i32 @mriStep_AccessARKODEStepMem(ptr noundef %0, ptr noundef nonnull @__func__.MRIStepWriteCoupling, ptr noundef nonnull %3, ptr noundef nonnull %4) #5
  %.not = icmp eq i32 %5, 0
  br i1 %.not, label %6, label %18

6:                                                ; preds = %2
  %7 = load ptr, ptr %4, align 8, !tbaa !8
  %8 = getelementptr inbounds nuw i8, ptr %7, i64 72
  %9 = load ptr, ptr %8, align 8, !tbaa !24
  %10 = icmp eq ptr %9, null
  br i1 %10, label %11, label %13

11:                                               ; preds = %6
  %12 = load ptr, ptr %3, align 8, !tbaa !3
  call void (ptr, i32, i32, ptr, ptr, ptr, ...) @arkProcessError(ptr noundef %12, i32 noundef -21, i32 noundef 1322, ptr noundef nonnull @__func__.MRIStepWriteCoupling, ptr noundef nonnull @.str, ptr noundef nonnull @.str.65) #5
  br label %18

13:                                               ; preds = %6
  %14 = call i64 @fwrite(ptr nonnull @.str.66, i64 29, i64 1, ptr %1)
  %15 = load ptr, ptr %4, align 8, !tbaa !8
  %16 = getelementptr inbounds nuw i8, ptr %15, i64 72
  %17 = load ptr, ptr %16, align 8, !tbaa !24
  call void @MRIStepCoupling_Write(ptr noundef %17, ptr noundef %1) #5
  br label %18

18:                                               ; preds = %2, %13, %11
  %.0 = phi i32 [ -21, %11 ], [ 0, %13 ], [ %5, %2 ]
  call void @llvm.lifetime.end.p0(i64 8, ptr nonnull %4) #5
  call void @llvm.lifetime.end.p0(i64 8, ptr nonnull %3) #5
  ret i32 %.0
}